target datalayout = "e-m:e-p270:32:32-p271:32:32-p272:64:64-i64:64-i128:128-f80:128-n8:16:32:64-S128"
target triple = "x86_64-pc-linux-gnu"

%struct.X86Features = type { [2 x i64], ptr }

@x86_feature_zero = dso_local constant %struct.X86Features zeroinitializer, align 8
@.str.16 = private unnamed_addr constant [36 x i8] c"FATAL ERROR %s -> in %s @ in %s:%d \00", align 1
@.str.17 = private unnamed_addr constant [22 x i8] c"Should be unreachable\00", align 1
@.str.18 = private unnamed_addr constant [107 x i8] c"generated/home/dtcxzyw/WorkSpace/Projects/compilers/llvm-opt-benchmark/bench/c3c/c3c/src/compiler/target.c\00", align 1
@__func__.x86features_from_cpu = private unnamed_addr constant [21 x i8] c"x86features_from_cpu\00", align 1

; Function Attrs: nounwind uwtable
define internal void @x86features_from_cpu(ptr noundef %0, i32 noundef %1) #0 {
  %3 = alloca ptr, align 8
  %4 = alloca i32, align 4
  store ptr %0, ptr %3, align 8
  store i32 %1, ptr %4, align 4
  %5 = load ptr, ptr %3, align 8
  call void @llvm.memcpy.p0.p0.i64(ptr align 8 %5, ptr align 8 @x86_feature_zero, i64 24, i1 false)
  %6 = load i32, ptr %4, align 4
  switch i32 %6, label %69 [
    i32 6, label %7
    i32 5, label %26
    i32 4, label %34
    i32 3, label %47
    i32 2, label %51
    i32 1, label %56
    i32 -1, label %60
    i32 0, label %60
    i32 7, label %67
  ]

7:                                                ; preds = %2
  %8 = load ptr, ptr %3, align 8
  call void @x86_features_add_feature(ptr noundef %8, i32 noundef 17)
  %9 = load ptr, ptr %3, align 8
  call void @x86_features_add_feature(ptr noundef %9, i32 noundef 14)
  %10 = load ptr, ptr %3, align 8
  call void @x86_features_add_feature(ptr noundef %10, i32 noundef 26)
  %11 = load ptr, ptr %3, align 8
  call void @x86_features_add_feature(ptr noundef %11, i32 noundef 13)
  %12 = load ptr, ptr %3, align 8
  call void @x86_features_add_feature(ptr noundef %12, i32 noundef 15)
  %13 = load ptr, ptr %3, align 8
  call void @x86_features_add_feature(ptr noundef %13, i32 noundef 11)
  %14 = load ptr, ptr %3, align 8
  call void @x86_features_add_feature(ptr noundef %14, i32 noundef 23)
  %15 = load ptr, ptr %3, align 8
  call void @x86_features_add_feature(ptr noundef %15, i32 noundef 19)
  %16 = load ptr, ptr %3, align 8
  call void @x86_features_add_feature(ptr noundef %16, i32 noundef 77)
  %17 = load ptr, ptr %3, align 8
  call void @x86_features_add_feature(ptr noundef %17, i32 noundef 12)
  %18 = load ptr, ptr %3, align 8
  call void @x86_features_add_feature(ptr noundef %18, i32 noundef 21)
  %19 = load ptr, ptr %3, align 8
  call void @x86_features_add_feature(ptr noundef %19, i32 noundef 22)
  %20 = load ptr, ptr %3, align 8
  call void @x86_features_add_feature(ptr noundef %20, i32 noundef 29)
  %21 = load ptr, ptr %3, align 8
  call void @x86_features_add_feature(ptr noundef %21, i32 noundef 49)
  %22 = load ptr, ptr %3, align 8
  call void @x86_features_add_feature(ptr noundef %22, i32 noundef 69)
  %23 = load ptr, ptr %3, align 8
  call void @x86_features_add_feature(ptr noundef %23, i32 noundef 92)
  %24 = load ptr, ptr %3, align 8
  call void @x86_features_add_feature(ptr noundef %24, i32 noundef 93)
  %25 = load ptr, ptr %3, align 8
  call void @x86_features_add_feature(ptr noundef %25, i32 noundef 62)
  br label %26

26:                                               ; preds = %7, %2
  %27 = load ptr, ptr %3, align 8
  call void @x86_features_add_feature(ptr noundef %27, i32 noundef 1)
  %28 = load ptr, ptr %3, align 8
  call void @x86_features_add_feature(ptr noundef %28, i32 noundef 0)
  %29 = load ptr, ptr %3, align 8
  call void @x86_features_add_feature(ptr noundef %29, i32 noundef 72)
  %30 = load ptr, ptr %3, align 8
  call void @x86_features_add_feature(ptr noundef %30, i32 noundef 66)
  %31 = load ptr, ptr %3, align 8
  call void @x86_features_add_feature(ptr noundef %31, i32 noundef 103)
  %32 = load ptr, ptr %3, align 8
  call void @x86_features_add_feature(ptr noundef %32, i32 noundef 101)
  %33 = load ptr, ptr %3, align 8
  call void @x86_features_add_feature(ptr noundef %33, i32 noundef 35)
  br label %34

34:                                               ; preds = %26, %2
  %35 = load ptr, ptr %3, align 8
  call void @x86_features_add_feature(ptr noundef %35, i32 noundef 8)
  %36 = load ptr, ptr %3, align 8
  call void @x86_features_add_feature(ptr noundef %36, i32 noundef 32)
  %37 = load ptr, ptr %3, align 8
  call void @x86_features_add_feature(ptr noundef %37, i32 noundef 33)
  %38 = load ptr, ptr %3, align 8
  call void @x86_features_add_feature(ptr noundef %38, i32 noundef 44)
  %39 = load ptr, ptr %3, align 8
  call void @x86_features_add_feature(ptr noundef %39, i32 noundef 45)
  %40 = load ptr, ptr %3, align 8
  call void @x86_features_add_feature(ptr noundef %40, i32 noundef 54)
  %41 = load ptr, ptr %3, align 8
  call void @x86_features_add_feature(ptr noundef %41, i32 noundef 56)
  %42 = load ptr, ptr %3, align 8
  call void @x86_features_add_feature(ptr noundef %42, i32 noundef 102)
  %43 = load ptr, ptr %3, align 8
  call void @x86_features_add_feature(ptr noundef %43, i32 noundef 60)
  %44 = load ptr, ptr %3, align 8
  call void @x86_features_add_feature(ptr noundef %44, i32 noundef 47)
  %45 = load ptr, ptr %3, align 8
  call void @x86_features_add_feature(ptr noundef %45, i32 noundef 71)
  %46 = load ptr, ptr %3, align 8
  call void @x86_features_add_feature(ptr noundef %46, i32 noundef 54)
  br label %47

47:                                               ; preds = %34, %2
  %48 = load ptr, ptr %3, align 8
  call void @x86_features_add_feature(ptr noundef %48, i32 noundef 7)
  %49 = load ptr, ptr %3, align 8
  call void @x86_features_add_feature(ptr noundef %49, i32 noundef 60)
  %50 = load ptr, ptr %3, align 8
  call void @x86_features_add_feature(ptr noundef %50, i32 noundef 100)
  br label %51

51:                                               ; preds = %47, %2
  %52 = load ptr, ptr %3, align 8
  call void @x86_features_add_feature(ptr noundef %52, i32 noundef 85)
  %53 = load ptr, ptr %3, align 8
  call void @x86_features_add_feature(ptr noundef %53, i32 noundef 86)
  %54 = load ptr, ptr %3, align 8
  call void @x86_features_add_feature(ptr noundef %54, i32 noundef 63)
  %55 = load ptr, ptr %3, align 8
  call void @x86_features_add_feature(ptr noundef %55, i32 noundef 42)
  br label %56

56:                                               ; preds = %51, %2
  %57 = load ptr, ptr %3, align 8
  call void @x86_features_add_feature(ptr noundef %57, i32 noundef 74)
  %58 = load ptr, ptr %3, align 8
  call void @x86_features_add_feature(ptr noundef %58, i32 noundef 88)
  %59 = load ptr, ptr %3, align 8
  call void @x86_features_add_feature(ptr noundef %59, i32 noundef 40)
  br label %60

60:                                               ; preds = %56, %2, %2
  %61 = load ptr, ptr %3, align 8
  call void @x86_features_add_feature(ptr noundef %61, i32 noundef 41)
  %62 = load ptr, ptr %3, align 8
  call void @x86_features_add_feature(ptr noundef %62, i32 noundef 55)
  %63 = load ptr, ptr %3, align 8
  call void @x86_features_add_feature(ptr noundef %63, i32 noundef 48)
  %64 = load ptr, ptr %3, align 8
  call void @x86_features_add_feature(ptr noundef %64, i32 noundef 82)
  %65 = load ptr, ptr %3, align 8
  call void @x86_features_add_feature(ptr noundef %65, i32 noundef 83)
  %66 = load ptr, ptr %3, align 8
  call void @x86_features_add_feature(ptr noundef %66, i32 noundef 38)
  br label %71

67:                                               ; preds = %2
  %68 = load ptr, ptr %3, align 8
  call void @x86_features_from_host(ptr noundef %68)
  br label %71

69:                                               ; preds = %2
  br label %70

70:                                               ; preds = %69
  call void (ptr, ...) @error_exit(ptr noundef @.str.16, ptr noundef @.str.17, ptr noundef @__func__.x86features_from_cpu, ptr noundef @.str.18, i32 noundef 883) #7
  unreachable

71:                                               ; preds = %67, %60
  ret void
}