; Function Attrs: nounwind uwtable
define internal fastcc void @x86features_from_cpu(ptr noundef %0, i32 noundef %1) unnamed_addr #2 {
  tail call void @llvm.memset.p0.i64(ptr noundef nonnull align 8 dereferenceable(24) %0, i8 0, i64 24, i1 false)
  switch i32 %1, label %11 [
    i32 6, label %3
    i32 5, label %4
    i32 4, label %5
    i32 3, label %6
    i32 2, label %7
    i32 1, label %8
    i32 -1, label %9
    i32 0, label %9
    i32 7, label %10
  ]

3:                                                ; preds = %2
  tail call fastcc void @x86_features_add_feature(ptr noundef nonnull %0, i32 noundef 17)
  tail call fastcc void @x86_features_add_feature(ptr noundef nonnull %0, i32 noundef 14)
  tail call fastcc void @x86_features_add_feature(ptr noundef nonnull %0, i32 noundef 26)
  tail call fastcc void @x86_features_add_feature(ptr noundef nonnull %0, i32 noundef 13)
  tail call fastcc void @x86_features_add_feature(ptr noundef nonnull %0, i32 noundef 15)
  tail call fastcc void @x86_features_add_feature(ptr noundef nonnull %0, i32 noundef 11)
  tail call fastcc void @x86_features_add_feature(ptr noundef nonnull %0, i32 noundef 23)
  tail call fastcc void @x86_features_add_feature(ptr noundef nonnull %0, i32 noundef 19)
  tail call fastcc void @x86_features_add_feature(ptr noundef nonnull %0, i32 noundef 77)
  tail call fastcc void @x86_features_add_feature(ptr noundef nonnull %0, i32 noundef 12)
  tail call fastcc void @x86_features_add_feature(ptr noundef nonnull %0, i32 noundef 21)
  tail call fastcc void @x86_features_add_feature(ptr noundef nonnull %0, i32 noundef 22)
  tail call fastcc void @x86_features_add_feature(ptr noundef nonnull %0, i32 noundef 29)
  tail call fastcc void @x86_features_add_feature(ptr noundef nonnull %0, i32 noundef 49)
  tail call fastcc void @x86_features_add_feature(ptr noundef nonnull %0, i32 noundef 69)
  tail call fastcc void @x86_features_add_feature(ptr noundef nonnull %0, i32 noundef 92)
  tail call fastcc void @x86_features_add_feature(ptr noundef nonnull %0, i32 noundef 93)
  tail call fastcc void @x86_features_add_feature(ptr noundef nonnull %0, i32 noundef 62)
  br label %4

4:                                                ; preds = %3, %2
  tail call fastcc void @x86_features_add_feature(ptr noundef nonnull %0, i32 noundef 1)
  tail call fastcc void @x86_features_add_feature(ptr noundef nonnull %0, i32 noundef 0)
  tail call fastcc void @x86_features_add_feature(ptr noundef nonnull %0, i32 noundef 72)
  tail call fastcc void @x86_features_add_feature(ptr noundef nonnull %0, i32 noundef 66)
  tail call fastcc void @x86_features_add_feature(ptr noundef nonnull %0, i32 noundef 103)
  tail call fastcc void @x86_features_add_feature(ptr noundef nonnull %0, i32 noundef 101)
  tail call fastcc void @x86_features_add_feature(ptr noundef nonnull %0, i32 noundef 35)
  br label %5

5:                                                ; preds = %4, %2
  tail call fastcc void @x86_features_add_feature(ptr noundef nonnull %0, i32 noundef 8)
  tail call fastcc void @x86_features_add_feature(ptr noundef nonnull %0, i32 noundef 32)
  tail call fastcc void @x86_features_add_feature(ptr noundef nonnull %0, i32 noundef 33)
  tail call fastcc void @x86_features_add_feature(ptr noundef nonnull %0, i32 noundef 44)
  tail call fastcc void @x86_features_add_feature(ptr noundef nonnull %0, i32 noundef 45)
  tail call fastcc void @x86_features_add_feature(ptr noundef nonnull %0, i32 noundef 54)
  tail call fastcc void @x86_features_add_feature(ptr noundef nonnull %0, i32 noundef 56)
  tail call fastcc void @x86_features_add_feature(ptr noundef nonnull %0, i32 noundef 102)
  tail call fastcc void @x86_features_add_feature(ptr noundef nonnull %0, i32 noundef 60)
  tail call fastcc void @x86_features_add_feature(ptr noundef nonnull %0, i32 noundef 47)
  tail call fastcc void @x86_features_add_feature(ptr noundef nonnull %0, i32 noundef 71)
  tail call fastcc void @x86_features_add_feature(ptr noundef nonnull %0, i32 noundef 54)
  br label %6

6:                                                ; preds = %5, %2
  tail call fastcc void @x86_features_add_feature(ptr noundef nonnull %0, i32 noundef 7)
  tail call fastcc void @x86_features_add_feature(ptr noundef nonnull %0, i32 noundef 60)
  tail call fastcc void @x86_features_add_feature(ptr noundef nonnull %0, i32 noundef 100)
  br label %7

7:                                                ; preds = %6, %2
  tail call fastcc void @x86_features_add_feature(ptr noundef nonnull %0, i32 noundef 85)
  tail call fastcc void @x86_features_add_feature(ptr noundef nonnull %0, i32 noundef 86)
  tail call fastcc void @x86_features_add_feature(ptr noundef nonnull %0, i32 noundef 63)
  tail call fastcc void @x86_features_add_feature(ptr noundef nonnull %0, i32 noundef 42)
  br label %8

8:                                                ; preds = %7, %2
  tail call fastcc void @x86_features_add_feature(ptr noundef nonnull %0, i32 noundef 74)
  tail call fastcc void @x86_features_add_feature(ptr noundef nonnull %0, i32 noundef 88)
  tail call fastcc void @x86_features_add_feature(ptr noundef nonnull %0, i32 noundef 40)
  br label %9

9:                                                ; preds = %8, %2, %2
  tail call fastcc void @x86_features_add_feature(ptr noundef nonnull %0, i32 noundef 41)
  tail call fastcc void @x86_features_add_feature(ptr noundef nonnull %0, i32 noundef 55)
  tail call fastcc void @x86_features_add_feature(ptr noundef nonnull %0, i32 noundef 48)
  tail call fastcc void @x86_features_add_feature(ptr noundef nonnull %0, i32 noundef 82)
  tail call fastcc void @x86_features_add_feature(ptr noundef nonnull %0, i32 noundef 83)
  tail call fastcc void @x86_features_add_feature(ptr noundef nonnull %0, i32 noundef 38)
  br label %12

10:                                               ; preds = %2
  tail call fastcc void @x86_features_from_host(ptr noundef nonnull %0)
  br label %12

11:                                               ; preds = %2
  tail call void (ptr, ...) @error_exit(ptr noundef nonnull @.str.16, ptr noundef nonnull @.str.17, ptr noundef nonnull @__func__.x86features_from_cpu, ptr noundef nonnull @.str.18, i32 noundef 883) #16
  unreachable

12:                                               ; preds = %10, %9
  ret void
}